target datalayout = "e-m:e-p270:32:32-p271:32:32-p272:64:64-i64:64-i128:128-f80:128-n8:16:32:64-S128"
target triple = "x86_64-pc-linux-gnu"

%struct.H5EA_t = type { ptr, ptr }
%struct.H5EA_hdr_t = type { %struct.H5C_cache_entry_t, %struct.H5EA_create_t, i64, %struct.H5EA_stat_t, %struct.anon.1, i64, i64, i64, ptr, i64, i8, i64, i64, i8, i64, ptr, i64, ptr, i8, ptr, ptr }
%struct.H5C_cache_entry_t = type { ptr, i64, i64, ptr, i8, ptr, i8, i8, i8, i8, i32, i8, i8, i8, i8, i8, i32, ptr, i32, i32, i32, i32, i32, i8, i8, ptr, ptr, ptr, ptr, ptr, ptr, i8, i32, i8, i64, ptr, i64, i64, i32, i8, i32, i32, i8, ptr, ptr, ptr }
%struct.H5EA_create_t = type { ptr, i8, i8, i8, i8, i8, i8 }
%struct.H5EA_stat_t = type { %struct.anon, %struct.anon.0 }
%struct.anon = type { i64, i64, i64 }
%struct.anon.0 = type { i64, i64, i64, i64, i64, i64 }
%struct.anon.1 = type { i64, ptr }

; Function Attrs: nounwind uwtable
define i32 @H5EA__get_cparam_test(ptr noundef %0, ptr noundef %1) #0 {
  %3 = alloca ptr, align 8
  %4 = alloca ptr, align 8
  store ptr %0, ptr %3, align 8
  store ptr %1, ptr %4, align 8
  %5 = load ptr, ptr %3, align 8
  %6 = getelementptr inbounds %struct.H5EA_t, ptr %5, i32 0, i32 0
  %7 = load ptr, ptr %6, align 8
  %8 = getelementptr inbounds %struct.H5EA_hdr_t, ptr %7, i32 0, i32 1
  %9 = getelementptr inbounds %struct.H5EA_create_t, ptr %8, i32 0, i32 1
  %10 = load i8, ptr %9, align 8
  %11 = load ptr, ptr %4, align 8
  %12 = getelementptr inbounds %struct.H5EA_create_t, ptr %11, i32 0, i32 1
  store i8 %10, ptr %12, align 8
  %13 = load ptr, ptr %3, align 8
  %14 = getelementptr inbounds %struct.H5EA_t, ptr %13, i32 0, i32 0
  %15 = load ptr, ptr %14, align 8
  %16 = getelementptr inbounds %struct.H5EA_hdr_t, ptr %15, i32 0, i32 1
  %17 = getelementptr inbounds %struct.H5EA_create_t, ptr %16, i32 0, i32 2
  %18 = load i8, ptr %17, align 1
  %19 = load ptr, ptr %4, align 8
  %20 = getelementptr inbounds %struct.H5EA_create_t, ptr %19, i32 0, i32 2
  store i8 %18, ptr %20, align 1
  %21 = load ptr, ptr %3, align 8
  %22 = getelementptr inbounds %struct.H5EA_t, ptr %21, i32 0, i32 0
  %23 = load ptr, ptr %22, align 8
  %24 = getelementptr inbounds %struct.H5EA_hdr_t, ptr %23, i32 0, i32 1
  %25 = getelementptr inbounds %struct.H5EA_create_t, ptr %24, i32 0, i32 3
  %26 = load i8, ptr %25, align 2
  %27 = load ptr, ptr %4, align 8
  %28 = getelementptr inbounds %struct.H5EA_create_t, ptr %27, i32 0, i32 3
  store i8 %26, ptr %28, align 2
  %29 = load ptr, ptr %3, align 8
  %30 = getelementptr inbounds %struct.H5EA_t, ptr %29, i32 0, i32 0
  %31 = load ptr, ptr %30, align 8
  %32 = getelementptr inbounds %struct.H5EA_hdr_t, ptr %31, i32 0, i32 1
  %33 = getelementptr inbounds %struct.H5EA_create_t, ptr %32, i32 0, i32 5
  %34 = load i8, ptr %33, align 4
  %35 = load ptr, ptr %4, align 8
  %36 = getelementptr inbounds %struct.H5EA_create_t, ptr %35, i32 0, i32 5
  store i8 %34, ptr %36, align 4
  %37 = load ptr, ptr %3, align 8
  %38 = getelementptr inbounds %struct.H5EA_t, ptr %37, i32 0, i32 0
  %39 = load ptr, ptr %38, align 8
  %40 = getelementptr inbounds %struct.H5EA_hdr_t, ptr %39, i32 0, i32 1
  %41 = getelementptr inbounds %struct.H5EA_create_t, ptr %40, i32 0, i32 4
  %42 = load i8, ptr %41, align 1
  %43 = load ptr, ptr %4, align 8
  %44 = getelementptr inbounds %struct.H5EA_create_t, ptr %43, i32 0, i32 4
  store i8 %42, ptr %44, align 1
  %45 = load ptr, ptr %3, align 8
  %46 = getelementptr inbounds %struct.H5EA_t, ptr %45, i32 0, i32 0
  %47 = load ptr, ptr %46, align 8
  %48 = getelementptr inbounds %struct.H5EA_hdr_t, ptr %47, i32 0, i32 1
  %49 = getelementptr inbounds %struct.H5EA_create_t, ptr %48, i32 0, i32 6
  %50 = load i8, ptr %49, align 1
  %51 = load ptr, ptr %4, align 8
  %52 = getelementptr inbounds %struct.H5EA_create_t, ptr %51, i32 0, i32 6
  store i8 %50, ptr %52, align 1
  ret i32 0
}