; Function Attrs: mustprogress nofree norecurse nosync nounwind willreturn memory(read, argmem: readwrite, inaccessiblemem: none) uwtable
define noundef i32 @H5EA__get_cparam_test(ptr noundef readonly captures(none) %0, ptr noundef writeonly captures(none) initializes((8, 14)) %1) local_unnamed_addr #3 {
  %3 = load ptr, ptr %0, align 8
  %4 = getelementptr inbounds nuw i8, ptr %3, i64 256
  %5 = load i8, ptr %4, align 8
  %6 = getelementptr inbounds nuw i8, ptr %1, i64 8
  store i8 %5, ptr %6, align 8
  %7 = load ptr, ptr %0, align 8
  %8 = getelementptr inbounds nuw i8, ptr %7, i64 257
  %9 = load i8, ptr %8, align 1
  %10 = getelementptr inbounds nuw i8, ptr %1, i64 9
  store i8 %9, ptr %10, align 1
  %11 = load ptr, ptr %0, align 8
  %12 = getelementptr inbounds nuw i8, ptr %11, i64 258
  %13 = load i8, ptr %12, align 2
  %14 = getelementptr inbounds nuw i8, ptr %1, i64 10
  store i8 %13, ptr %14, align 2
  %15 = load ptr, ptr %0, align 8
  %16 = getelementptr inbounds nuw i8, ptr %15, i64 260
  %17 = load i8, ptr %16, align 4
  %18 = getelementptr inbounds nuw i8, ptr %1, i64 12
  store i8 %17, ptr %18, align 4
  %19 = load ptr, ptr %0, align 8
  %20 = getelementptr inbounds nuw i8, ptr %19, i64 259
  %21 = load i8, ptr %20, align 1
  %22 = getelementptr inbounds nuw i8, ptr %1, i64 11
  store i8 %21, ptr %22, align 1
  %23 = load ptr, ptr %0, align 8
  %24 = getelementptr inbounds nuw i8, ptr %23, i64 261
  %25 = load i8, ptr %24, align 1
  %26 = getelementptr inbounds nuw i8, ptr %1, i64 13
  store i8 %25, ptr %26, align 1
  ret i32 0
}